; Function Attrs: mustprogress nounwind uwtable
define void @_ZN8facebook5velox6memory14AllocationPool5clearEv(ptr nocapture noundef nonnull align 8 dereferenceable(96) %this) local_unnamed_addr #3 align 2 personality ptr @__gxx_personality_v0 {
entry:
  %allocations_ = getelementptr inbounds i8, ptr %this, i64 8
  %0 = load ptr, ptr %allocations_, align 8
  %_M_finish.i.i = getelementptr inbounds i8, ptr %this, i64 16
  %1 = load ptr, ptr %_M_finish.i.i, align 8
  %tobool.not.i.i = icmp eq ptr %1, %0
  br i1 %tobool.not.i.i, label %_ZNSt6vectorIN8facebook5velox6memory10AllocationESaIS3_EE5clearEv.exit, label %for.body.i.i.i.i.i

for.body.i.i.i.i.i:                               ; preds = %entry, %for.body.i.i.i.i.i
  %__first.addr.04.i.i.i.i.i = phi ptr [ %incdec.ptr.i.i.i.i.i, %for.body.i.i.i.i.i ], [ %0, %entry ]
  tail call void @_ZN8facebook5velox6memory10AllocationD1Ev(ptr noundef nonnull align 8 dereferenceable(36) %__first.addr.04.i.i.i.i.i) #15
  %incdec.ptr.i.i.i.i.i = getelementptr inbounds i8, ptr %__first.addr.04.i.i.i.i.i, i64 40
  %cmp.not.i.i.i.i.i = icmp eq ptr %incdec.ptr.i.i.i.i.i, %1
  br i1 %cmp.not.i.i.i.i.i, label %invoke.cont.i.i, label %for.body.i.i.i.i.i, !llvm.loop !4

invoke.cont.i.i:                                  ; preds = %for.body.i.i.i.i.i
  store ptr %0, ptr %_M_finish.i.i, align 8
  br label %_ZNSt6vectorIN8facebook5velox6memory10AllocationESaIS3_EE5clearEv.exit

_ZNSt6vectorIN8facebook5velox6memory10AllocationESaIS3_EE5clearEv.exit: ; preds = %entry, %invoke.cont.i.i
  %largeAllocations_ = getelementptr inbounds i8, ptr %this, i64 32
  %2 = load ptr, ptr %largeAllocations_, align 8
  %_M_finish.i.i1 = getelementptr inbounds i8, ptr %this, i64 40
  %3 = load ptr, ptr %_M_finish.i.i1, align 8
  %tobool.not.i.i2 = icmp eq ptr %3, %2
  br i1 %tobool.not.i.i2, label %_ZNSt6vectorIN8facebook5velox6memory20ContiguousAllocationESaIS3_EE5clearEv.exit, label %for.body.i.i.i.i.i3

for.body.i.i.i.i.i3:                              ; preds = %_ZNSt6vectorIN8facebook5velox6memory10AllocationESaIS3_EE5clearEv.exit, %for.body.i.i.i.i.i3
  %__first.addr.04.i.i.i.i.i4 = phi ptr [ %incdec.ptr.i.i.i.i.i5, %for.body.i.i.i.i.i3 ], [ %2, %_ZNSt6vectorIN8facebook5velox6memory10AllocationESaIS3_EE5clearEv.exit ]
  tail call void @_ZN8facebook5velox6memory20ContiguousAllocationD1Ev(ptr noundef nonnull align 8 dereferenceable(32) %__first.addr.04.i.i.i.i.i4) #15
  %incdec.ptr.i.i.i.i.i5 = getelementptr inbounds i8, ptr %__first.addr.04.i.i.i.i.i4, i64 32
  %cmp.not.i.i.i.i.i6 = icmp eq ptr %incdec.ptr.i.i.i.i.i5, %3
  br i1 %cmp.not.i.i.i.i.i6, label %invoke.cont.i.i7, label %for.body.i.i.i.i.i3, !llvm.loop !6

invoke.cont.i.i7:                                 ; preds = %for.body.i.i.i.i.i3
  store ptr %2, ptr %_M_finish.i.i1, align 8
  br label %_ZNSt6vectorIN8facebook5velox6memory20ContiguousAllocationESaIS3_EE5clearEv.exit

_ZNSt6vectorIN8facebook5velox6memory20ContiguousAllocationESaIS3_EE5clearEv.exit: ; preds = %_ZNSt6vectorIN8facebook5velox6memory10AllocationESaIS3_EE5clearEv.exit, %invoke.cont.i.i7
  %startOfRun_ = getelementptr inbounds i8, ptr %this, i64 56
  tail call void @llvm.memset.p0.i64(ptr noundef nonnull align 8 dereferenceable(32) %startOfRun_, i8 0, i64 32, i1 false)
  ret void
}